target datalayout = "e-m:e-p270:32:32-p271:32:32-p272:64:64-i64:64-i128:128-f80:128-n8:16:32:64-S128"
target triple = "x86_64-pc-linux-gnu"

%"struct.faiss::OnDiskInvertedLists" = type <{ %"struct.faiss::InvertedLists.base", [7 x i8], %"class.std::vector.5", %"class.std::__cxx11::list", %"class.std::__cxx11::basic_string", i64, ptr, i8, [7 x i8], ptr, ptr, i32, [4 x i8] }>
%"struct.faiss::InvertedLists.base" = type <{ ptr, i64, i64, i8 }>
%"class.std::vector.5" = type { %"struct.std::_Vector_base.6" }
%"struct.std::_Vector_base.6" = type { %"struct.std::_Vector_base<faiss::OnDiskOneList, std::allocator<faiss::OnDiskOneList>>::_Vector_impl" }
%"struct.std::_Vector_base<faiss::OnDiskOneList, std::allocator<faiss::OnDiskOneList>>::_Vector_impl" = type { %"struct.std::_Vector_base<faiss::OnDiskOneList, std::allocator<faiss::OnDiskOneList>>::_Vector_impl_data" }
%"struct.std::_Vector_base<faiss::OnDiskOneList, std::allocator<faiss::OnDiskOneList>>::_Vector_impl_data" = type { ptr, ptr, ptr }
%"class.std::__cxx11::list" = type { %"class.std::__cxx11::_List_base" }
%"class.std::__cxx11::_List_base" = type { %"struct.std::__cxx11::_List_base<faiss::OnDiskInvertedLists::Slot, std::allocator<faiss::OnDiskInvertedLists::Slot>>::_List_impl" }
%"struct.std::__cxx11::_List_base<faiss::OnDiskInvertedLists::Slot, std::allocator<faiss::OnDiskInvertedLists::Slot>>::_List_impl" = type { %"struct.std::__detail::_List_node_header" }
%"struct.std::__detail::_List_node_header" = type { %"struct.std::__detail::_List_node_base", i64 }
%"struct.std::__detail::_List_node_base" = type { ptr, ptr }
%"class.std::__cxx11::basic_string" = type { %"struct.std::__cxx11::basic_string<char>::_Alloc_hider", i64, %union.anon }
%"struct.std::__cxx11::basic_string<char>::_Alloc_hider" = type { ptr }
%union.anon = type { i64, [8 x i8] }
%"struct.faiss::OnDiskOneList" = type { i64, i64, i64 }
%"struct.faiss::InvertedLists" = type <{ ptr, i64, i64, i8, [7 x i8] }>

; Function Attrs: mustprogress nounwind uwtable
define linkonce_odr noundef nonnull align 8 dereferenceable(24) ptr @_ZNKSt6vectorIN5faiss13OnDiskOneListESaIS1_EEixEm(ptr noundef nonnull align 8 dereferenceable(24) %0, i64 noundef %1) #0 comdat align 2 {
  %3 = alloca ptr, align 8
  %4 = alloca i64, align 8
  store ptr %0, ptr %3, align 8
  store i64 %1, ptr %4, align 8
  %5 = load ptr, ptr %3, align 8
  %6 = getelementptr inbounds %"struct.std::_Vector_base.6", ptr %5, i32 0, i32 0
  %7 = getelementptr inbounds %"struct.std::_Vector_base<faiss::OnDiskOneList, std::allocator<faiss::OnDiskOneList>>::_Vector_impl_data", ptr %6, i32 0, i32 0
  %8 = load ptr, ptr %7, align 8
  %9 = load i64, ptr %4, align 8
  %10 = getelementptr inbounds %"struct.faiss::OnDiskOneList", ptr %8, i64 %9
  ret ptr %10
}

; Function Attrs: mustprogress nounwind uwtable
define noundef ptr @_ZNK5faiss19OnDiskInvertedLists7get_idsEm(ptr noundef nonnull align 8 dereferenceable(156) %0, i64 noundef %1) unnamed_addr #0 align 2 {
  %3 = alloca ptr, align 8
  %4 = alloca ptr, align 8
  %5 = alloca i64, align 8
  store ptr %0, ptr %4, align 8
  store i64 %1, ptr %5, align 8
  %6 = load ptr, ptr %4, align 8
  %7 = getelementptr inbounds %"struct.faiss::OnDiskInvertedLists", ptr %6, i32 0, i32 2
  %8 = load i64, ptr %5, align 8
  %9 = call noundef nonnull align 8 dereferenceable(24) ptr @_ZNKSt6vectorIN5faiss13OnDiskOneListESaIS1_EEixEm(ptr noundef nonnull align 8 dereferenceable(24) %7, i64 noundef %8) #13
  %10 = getelementptr inbounds %"struct.faiss::OnDiskOneList", ptr %9, i32 0, i32 2
  %11 = load i64, ptr %10, align 8
  %12 = icmp eq i64 %11, -1
  br i1 %12, label %13, label %14

13:                                               ; preds = %2
  store ptr null, ptr %3, align 8
  br label %32

14:                                               ; preds = %2
  %15 = getelementptr inbounds %"struct.faiss::OnDiskInvertedLists", ptr %6, i32 0, i32 6
  %16 = load ptr, ptr %15, align 8
  %17 = getelementptr inbounds %"struct.faiss::OnDiskInvertedLists", ptr %6, i32 0, i32 2
  %18 = load i64, ptr %5, align 8
  %19 = call noundef nonnull align 8 dereferenceable(24) ptr @_ZNKSt6vectorIN5faiss13OnDiskOneListESaIS1_EEixEm(ptr noundef nonnull align 8 dereferenceable(24) %17, i64 noundef %18) #13
  %20 = getelementptr inbounds %"struct.faiss::OnDiskOneList", ptr %19, i32 0, i32 2
  %21 = load i64, ptr %20, align 8
  %22 = getelementptr inbounds i8, ptr %16, i64 %21
  %23 = getelementptr inbounds %"struct.faiss::InvertedLists", ptr %6, i32 0, i32 2
  %24 = load i64, ptr %23, align 8
  %25 = getelementptr inbounds %"struct.faiss::OnDiskInvertedLists", ptr %6, i32 0, i32 2
  %26 = load i64, ptr %5, align 8
  %27 = call noundef nonnull align 8 dereferenceable(24) ptr @_ZNKSt6vectorIN5faiss13OnDiskOneListESaIS1_EEixEm(ptr noundef nonnull align 8 dereferenceable(24) %25, i64 noundef %26) #13
  %28 = getelementptr inbounds %"struct.faiss::OnDiskOneList", ptr %27, i32 0, i32 1
  %29 = load i64, ptr %28, align 8
  %30 = mul i64 %24, %29
  %31 = getelementptr inbounds i8, ptr %22, i64 %30
  store ptr %31, ptr %3, align 8
  br label %32

32:                                               ; preds = %14, %13
  %33 = load ptr, ptr %3, align 8
  ret ptr %33
}