; Function Attrs: mustprogress nofree norecurse nosync nounwind willreturn memory(read, inaccessiblemem: none) uwtable
define noundef ptr @_ZNK5faiss19OnDiskInvertedLists7get_idsEm(ptr nocapture noundef nonnull readonly align 8 dereferenceable(156) %0, i64 noundef %1) unnamed_addr #1 align 2 {
  %3 = getelementptr inbounds i8, ptr %0, i64 32
  %4 = load ptr, ptr %3, align 8
  %5 = getelementptr inbounds %"struct.faiss::OnDiskOneList", ptr %4, i64 %1
  %6 = getelementptr inbounds i8, ptr %5, i64 16
  %7 = load i64, ptr %6, align 8
  %8 = icmp eq i64 %7, -1
  br i1 %8, label %19, label %9

9:                                                ; preds = %2
  %10 = getelementptr inbounds i8, ptr %0, i64 120
  %11 = load ptr, ptr %10, align 8
  %12 = getelementptr inbounds i8, ptr %11, i64 %7
  %13 = getelementptr inbounds i8, ptr %0, i64 16
  %14 = load i64, ptr %13, align 8
  %15 = getelementptr inbounds i8, ptr %5, i64 8
  %16 = load i64, ptr %15, align 8
  %17 = mul i64 %16, %14
  %18 = getelementptr inbounds i8, ptr %12, i64 %17
  br label %19

19:                                               ; preds = %2, %9
  %.0 = phi ptr [ %18, %9 ], [ null, %2 ]
  ret ptr %.0
}